target datalayout = "e-m:e-p270:32:32-p271:32:32-p272:64:64-i64:64-i128:128-f80:128-n8:16:32:64-S128"
target triple = "x86_64-pc-linux-gnu"

%struct.SDL_Tray = type { ptr, ptr, [21 x i8], [256 x i8], ptr }

@.str.7 = private unnamed_addr constant [26 x i8] c"Parameter '%s' is invalid\00", align 1
@.str.8 = private unnamed_addr constant [5 x i8] c"tray\00", align 1

; Function Attrs: nounwind uwtable
define hidden ptr @SDL_GetTrayMenu_REAL(ptr noundef %0) #0 {
  %2 = alloca ptr, align 8
  %3 = alloca ptr, align 8
  store ptr %0, ptr %3, align 8
  %4 = load ptr, ptr %3, align 8
  %5 = call zeroext i1 @SDL_ObjectValid(ptr noundef %4, i32 noundef 11)
  br i1 %5, label %8, label %6

6:                                                ; preds = %1
  %7 = call zeroext i1 (ptr, ...) @SDL_SetError_REAL(ptr noundef @.str.7, ptr noundef @.str.8)
  store ptr null, ptr %2, align 8
  br label %12

8:                                                ; preds = %1
  %9 = load ptr, ptr %3, align 8
  %10 = getelementptr inbounds nuw %struct.SDL_Tray, ptr %9, i32 0, i32 1
  %11 = load ptr, ptr %10, align 8
  store ptr %11, ptr %2, align 8
  br label %12

12:                                               ; preds = %8, %6
  %13 = load ptr, ptr %2, align 8
  ret ptr %13
}