; Function Attrs: nounwind uwtable
define hidden ptr @SDL_GetTrayMenu_REAL(ptr noundef %0) local_unnamed_addr #0 {
  %2 = tail call zeroext i1 @SDL_ObjectValid(ptr noundef %0, i32 noundef 11) #10
  br i1 %2, label %5, label %3

3:                                                ; preds = %1
  %4 = tail call zeroext i1 (ptr, ...) @SDL_SetError_REAL(ptr noundef nonnull @.str.7, ptr noundef nonnull @.str.8) #10
  br label %8

5:                                                ; preds = %1
  %6 = getelementptr inbounds nuw i8, ptr %0, i64 8
  %7 = load ptr, ptr %6, align 8
  br label %8

8:                                                ; preds = %5, %3
  %.0 = phi ptr [ %7, %5 ], [ null, %3 ]
  ret ptr %.0
}